target datalayout = "e-m:e-p270:32:32-p271:32:32-p272:64:64-i64:64-i128:128-f80:128-n8:16:32:64-S128"
target triple = "x86_64-pc-linux-gnu"

%struct.AVFilterContext = type { ptr, ptr, ptr, ptr, ptr, i32, ptr, ptr, i32, ptr, ptr, i32, i32, ptr, ptr, ptr, ptr, i32, ptr, i32, i32 }
%struct.AVRational = type { i32, i32 }
%struct.AVFilterLink = type { ptr, ptr, ptr, ptr, i32, i32, i32, i32, %struct.AVRational, i32, i32, i32, %struct.AVChannelLayout, %struct.AVRational, ptr, i32, %struct.AVFilterFormatsConfig, %struct.AVFilterFormatsConfig }
%struct.AVChannelLayout = type { i32, i32, %union.anon.1, ptr }
%union.anon.1 = type { i64 }
%struct.AVFilterFormatsConfig = type { ptr, ptr, ptr, ptr, ptr }
%struct.AVFrame = type { [8 x ptr], [8 x i32], ptr, i32, i32, i32, i32, i32, %struct.AVRational, i64, i64, %struct.AVRational, i32, ptr, i32, i32, [8 x ptr], ptr, i32, ptr, i32, i32, i32, i32, i32, i32, i32, i64, ptr, i32, ptr, ptr, i64, i64, i64, i64, ptr, %struct.AVChannelLayout, i64 }

@.str.16 = private unnamed_addr constant [38 x i8] c"tb:%d/%d pts:%ld -> tb:%d/%d pts:%ld\0A\00", align 1

; Function Attrs: inlinehint nounwind uwtable
define internal i32 @av_cmp_q(i64 %0, i64 %1) #2 {
  %3 = alloca i32, align 4
  %4 = alloca %struct.AVRational, align 4
  %5 = alloca %struct.AVRational, align 4
  %6 = alloca i64, align 8
  %7 = alloca i32, align 4
  store i64 %0, ptr %4, align 4
  store i64 %1, ptr %5, align 4
  call void @llvm.lifetime.start.p0(i64 8, ptr %6) #6
  %8 = getelementptr inbounds nuw %struct.AVRational, ptr %4, i32 0, i32 0
  %9 = load i32, ptr %8, align 4, !tbaa !41
  %10 = sext i32 %9 to i64
  %11 = getelementptr inbounds nuw %struct.AVRational, ptr %5, i32 0, i32 1
  %12 = load i32, ptr %11, align 4, !tbaa !42
  %13 = sext i32 %12 to i64
  %14 = mul nsw i64 %10, %13
  %15 = getelementptr inbounds nuw %struct.AVRational, ptr %5, i32 0, i32 0
  %16 = load i32, ptr %15, align 4, !tbaa !41
  %17 = sext i32 %16 to i64
  %18 = getelementptr inbounds nuw %struct.AVRational, ptr %4, i32 0, i32 1
  %19 = load i32, ptr %18, align 4, !tbaa !42
  %20 = sext i32 %19 to i64
  %21 = mul nsw i64 %17, %20
  %22 = sub nsw i64 %14, %21
  store i64 %22, ptr %6, align 8, !tbaa !28
  %23 = load i64, ptr %6, align 8, !tbaa !28
  %24 = icmp ne i64 %23, 0
  br i1 %24, label %25, label %38

25:                                               ; preds = %2
  %26 = load i64, ptr %6, align 8, !tbaa !28
  %27 = getelementptr inbounds nuw %struct.AVRational, ptr %4, i32 0, i32 1
  %28 = load i32, ptr %27, align 4, !tbaa !42
  %29 = sext i32 %28 to i64
  %30 = xor i64 %26, %29
  %31 = getelementptr inbounds nuw %struct.AVRational, ptr %5, i32 0, i32 1
  %32 = load i32, ptr %31, align 4, !tbaa !42
  %33 = sext i32 %32 to i64
  %34 = xor i64 %30, %33
  %35 = ashr i64 %34, 63
  %36 = trunc i64 %35 to i32
  %37 = or i32 %36, 1
  store i32 %37, ptr %3, align 4
  store i32 1, ptr %7, align 4
  br label %64

38:                                               ; preds = %2
  %39 = getelementptr inbounds nuw %struct.AVRational, ptr %5, i32 0, i32 1
  %40 = load i32, ptr %39, align 4, !tbaa !42
  %41 = icmp ne i32 %40, 0
  br i1 %41, label %42, label %47

42:                                               ; preds = %38
  %43 = getelementptr inbounds nuw %struct.AVRational, ptr %4, i32 0, i32 1
  %44 = load i32, ptr %43, align 4, !tbaa !42
  %45 = icmp ne i32 %44, 0
  br i1 %45, label %46, label %47

46:                                               ; preds = %42
  store i32 0, ptr %3, align 4
  store i32 1, ptr %7, align 4
  br label %64

47:                                               ; preds = %42, %38
  %48 = getelementptr inbounds nuw %struct.AVRational, ptr %4, i32 0, i32 0
  %49 = load i32, ptr %48, align 4, !tbaa !41
  %50 = icmp ne i32 %49, 0
  br i1 %50, label %51, label %63

51:                                               ; preds = %47
  %52 = getelementptr inbounds nuw %struct.AVRational, ptr %5, i32 0, i32 0
  %53 = load i32, ptr %52, align 4, !tbaa !41
  %54 = icmp ne i32 %53, 0
  br i1 %54, label %55, label %63

55:                                               ; preds = %51
  %56 = getelementptr inbounds nuw %struct.AVRational, ptr %4, i32 0, i32 0
  %57 = load i32, ptr %56, align 4, !tbaa !41
  %58 = ashr i32 %57, 31
  %59 = getelementptr inbounds nuw %struct.AVRational, ptr %5, i32 0, i32 0
  %60 = load i32, ptr %59, align 4, !tbaa !41
  %61 = ashr i32 %60, 31
  %62 = sub nsw i32 %58, %61
  store i32 %62, ptr %3, align 4
  store i32 1, ptr %7, align 4
  br label %64

63:                                               ; preds = %51, %47
  store i32 -2147483648, ptr %3, align 4
  store i32 1, ptr %7, align 4
  br label %64

64:                                               ; preds = %63, %55, %46, %25
  call void @llvm.lifetime.end.p0(i64 8, ptr %6) #6
  %65 = load i32, ptr %3, align 4
  ret i32 %65
}

; Function Attrs: inlinehint nounwind uwtable
define internal void @ff_outlink_set_status(ptr noundef %0, i32 noundef %1, i64 noundef %2) #2 {
  %4 = alloca ptr, align 8
  %5 = alloca i32, align 4
  %6 = alloca i64, align 8
  store ptr %0, ptr %4, align 8, !tbaa !22
  store i32 %1, ptr %5, align 4, !tbaa !25
  store i64 %2, ptr %6, align 8, !tbaa !28
  %7 = load ptr, ptr %4, align 8, !tbaa !22
  %8 = load i32, ptr %5, align 4, !tbaa !25
  %9 = load i64, ptr %6, align 8, !tbaa !28
  call void @ff_avfilter_link_set_in_status(ptr noundef %7, i32 noundef %8, i64 noundef %9)
  ret void
}

; Function Attrs: nounwind uwtable
define internal i64 @rescale_pts(ptr noundef %0, ptr noundef %1, i64 noundef %2) #0 {
  %4 = alloca ptr, align 8
  %5 = alloca ptr, align 8
  %6 = alloca i64, align 8
  %7 = alloca ptr, align 8
  %8 = alloca i64, align 8
  store ptr %0, ptr %4, align 8, !tbaa !22
  store ptr %1, ptr %5, align 8, !tbaa !22
  store i64 %2, ptr %6, align 8, !tbaa !28
  call void @llvm.lifetime.start.p0(i64 8, ptr %7) #6
  %9 = load ptr, ptr %4, align 8, !tbaa !22
  %10 = getelementptr inbounds nuw %struct.AVFilterLink, ptr %9, i32 0, i32 2
  %11 = load ptr, ptr %10, align 8, !tbaa !53
  store ptr %11, ptr %7, align 8, !tbaa !4
  call void @llvm.lifetime.start.p0(i64 8, ptr %8) #6
  %12 = load i64, ptr %6, align 8, !tbaa !28
  store i64 %12, ptr %8, align 8, !tbaa !28
  %13 = load ptr, ptr %4, align 8, !tbaa !22
  %14 = getelementptr inbounds nuw %struct.AVFilterLink, ptr %13, i32 0, i32 13
  %15 = load ptr, ptr %5, align 8, !tbaa !22
  %16 = getelementptr inbounds nuw %struct.AVFilterLink, ptr %15, i32 0, i32 13
  %17 = load i64, ptr %14, align 8
  %18 = load i64, ptr %16, align 8
  %19 = call i32 @av_cmp_q(i64 %17, i64 %18)
  %20 = icmp ne i32 %19, 0
  br i1 %20, label %21, label %49

21:                                               ; preds = %3
  %22 = load i64, ptr %6, align 8, !tbaa !28
  %23 = load ptr, ptr %4, align 8, !tbaa !22
  %24 = getelementptr inbounds nuw %struct.AVFilterLink, ptr %23, i32 0, i32 13
  %25 = load ptr, ptr %5, align 8, !tbaa !22
  %26 = getelementptr inbounds nuw %struct.AVFilterLink, ptr %25, i32 0, i32 13
  %27 = load i64, ptr %24, align 8
  %28 = load i64, ptr %26, align 8
  %29 = call i64 @av_rescale_q(i64 noundef %22, i64 %27, i64 %28) #7
  store i64 %29, ptr %8, align 8, !tbaa !28
  %30 = load ptr, ptr %7, align 8, !tbaa !4
  %31 = load ptr, ptr %4, align 8, !tbaa !22
  %32 = getelementptr inbounds nuw %struct.AVFilterLink, ptr %31, i32 0, i32 13
  %33 = getelementptr inbounds nuw %struct.AVRational, ptr %32, i32 0, i32 0
  %34 = load i32, ptr %33, align 8, !tbaa !51
  %35 = load ptr, ptr %4, align 8, !tbaa !22
  %36 = getelementptr inbounds nuw %struct.AVFilterLink, ptr %35, i32 0, i32 13
  %37 = getelementptr inbounds nuw %struct.AVRational, ptr %36, i32 0, i32 1
  %38 = load i32, ptr %37, align 4, !tbaa !52
  %39 = load i64, ptr %6, align 8, !tbaa !28
  %40 = load ptr, ptr %5, align 8, !tbaa !22
  %41 = getelementptr inbounds nuw %struct.AVFilterLink, ptr %40, i32 0, i32 13
  %42 = getelementptr inbounds nuw %struct.AVRational, ptr %41, i32 0, i32 0
  %43 = load i32, ptr %42, align 8, !tbaa !51
  %44 = load ptr, ptr %5, align 8, !tbaa !22
  %45 = getelementptr inbounds nuw %struct.AVFilterLink, ptr %44, i32 0, i32 13
  %46 = getelementptr inbounds nuw %struct.AVRational, ptr %45, i32 0, i32 1
  %47 = load i32, ptr %46, align 4, !tbaa !52
  %48 = load i64, ptr %8, align 8, !tbaa !28
  call void (ptr, i32, ptr, ...) @av_log(ptr noundef %30, i32 noundef 48, ptr noundef @.str.16, i32 noundef %34, i32 noundef %38, i64 noundef %39, i32 noundef %43, i32 noundef %47, i64 noundef %48)
  br label %49

49:                                               ; preds = %21, %3
  %50 = load i64, ptr %8, align 8, !tbaa !28
  call void @llvm.lifetime.end.p0(i64 8, ptr %8) #6
  call void @llvm.lifetime.end.p0(i64 8, ptr %7) #6
  ret i64 %50
}

; Function Attrs: nounwind uwtable
define internal i32 @filter_frame(ptr noundef %0, ptr noundef %1) #0 {
  %3 = alloca ptr, align 8
  %4 = alloca ptr, align 8
  %5 = alloca ptr, align 8
  %6 = alloca ptr, align 8
  store ptr %0, ptr %3, align 8, !tbaa !22
  store ptr %1, ptr %4, align 8, !tbaa !26
  call void @llvm.lifetime.start.p0(i64 8, ptr %5) #6
  %7 = load ptr, ptr %3, align 8, !tbaa !22
  %8 = getelementptr inbounds nuw %struct.AVFilterLink, ptr %7, i32 0, i32 2
  %9 = load ptr, ptr %8, align 8, !tbaa !53
  store ptr %9, ptr %5, align 8, !tbaa !4
  call void @llvm.lifetime.start.p0(i64 8, ptr %6) #6
  %10 = load ptr, ptr %5, align 8, !tbaa !4
  %11 = getelementptr inbounds nuw %struct.AVFilterContext, ptr %10, i32 0, i32 7
  %12 = load ptr, ptr %11, align 8, !tbaa !24
  %13 = getelementptr inbounds ptr, ptr %12, i64 0
  %14 = load ptr, ptr %13, align 8, !tbaa !22
  store ptr %14, ptr %6, align 8, !tbaa !22
  %15 = load ptr, ptr %3, align 8, !tbaa !22
  %16 = load ptr, ptr %6, align 8, !tbaa !22
  %17 = load ptr, ptr %4, align 8, !tbaa !26
  %18 = getelementptr inbounds nuw %struct.AVFrame, ptr %17, i32 0, i32 9
  %19 = load i64, ptr %18, align 8, !tbaa !54
  %20 = call i64 @rescale_pts(ptr noundef %15, ptr noundef %16, i64 noundef %19)
  %21 = load ptr, ptr %4, align 8, !tbaa !26
  %22 = getelementptr inbounds nuw %struct.AVFrame, ptr %21, i32 0, i32 9
  store i64 %20, ptr %22, align 8, !tbaa !54
  %23 = load ptr, ptr %4, align 8, !tbaa !26
  %24 = getelementptr inbounds nuw %struct.AVFrame, ptr %23, i32 0, i32 38
  %25 = load i64, ptr %24, align 8, !tbaa !59
  %26 = load ptr, ptr %3, align 8, !tbaa !22
  %27 = getelementptr inbounds nuw %struct.AVFilterLink, ptr %26, i32 0, i32 13
  %28 = load ptr, ptr %6, align 8, !tbaa !22
  %29 = getelementptr inbounds nuw %struct.AVFilterLink, ptr %28, i32 0, i32 13
  %30 = load i64, ptr %27, align 8
  %31 = load i64, ptr %29, align 8
  %32 = call i64 @av_rescale_q(i64 noundef %25, i64 %30, i64 %31) #7
  %33 = load ptr, ptr %4, align 8, !tbaa !26
  %34 = getelementptr inbounds nuw %struct.AVFrame, ptr %33, i32 0, i32 38
  store i64 %32, ptr %34, align 8, !tbaa !59
  %35 = load ptr, ptr %6, align 8, !tbaa !22
  %36 = load ptr, ptr %4, align 8, !tbaa !26
  %37 = call i32 @ff_filter_frame(ptr noundef %35, ptr noundef %36)
  call void @llvm.lifetime.end.p0(i64 8, ptr %6) #6
  call void @llvm.lifetime.end.p0(i64 8, ptr %5) #6
  ret i32 %37
}

; Function Attrs: nounwind uwtable
define internal i32 @activate(ptr noundef %0) #0 {
  %2 = alloca i32, align 4
  %3 = alloca ptr, align 8
  %4 = alloca ptr, align 8
  %5 = alloca ptr, align 8
  %6 = alloca ptr, align 8
  %7 = alloca i32, align 4
  %8 = alloca i64, align 8
  %9 = alloca i32, align 4
  %10 = alloca i32, align 4
  %11 = alloca i32, align 4
  store ptr %0, ptr %3, align 8, !tbaa !4
  call void @llvm.lifetime.start.p0(i64 8, ptr %4) #6
  %12 = load ptr, ptr %3, align 8, !tbaa !4
  %13 = getelementptr inbounds nuw %struct.AVFilterContext, ptr %12, i32 0, i32 4
  %14 = load ptr, ptr %13, align 8, !tbaa !9
  %15 = getelementptr inbounds ptr, ptr %14, i64 0
  %16 = load ptr, ptr %15, align 8, !tbaa !22
  store ptr %16, ptr %4, align 8, !tbaa !22
  call void @llvm.lifetime.start.p0(i64 8, ptr %5) #6
  %17 = load ptr, ptr %3, align 8, !tbaa !4
  %18 = getelementptr inbounds nuw %struct.AVFilterContext, ptr %17, i32 0, i32 7
  %19 = load ptr, ptr %18, align 8, !tbaa !24
  %20 = getelementptr inbounds ptr, ptr %19, i64 0
  %21 = load ptr, ptr %20, align 8, !tbaa !22
  store ptr %21, ptr %5, align 8, !tbaa !22
  call void @llvm.lifetime.start.p0(i64 8, ptr %6) #6
  call void @llvm.lifetime.start.p0(i64 4, ptr %7) #6
  call void @llvm.lifetime.start.p0(i64 8, ptr %8) #6
  call void @llvm.lifetime.start.p0(i64 4, ptr %9) #6
  br label %22

22:                                               ; preds = %1
  call void @llvm.lifetime.start.p0(i64 4, ptr %10) #6
  %23 = load ptr, ptr %5, align 8, !tbaa !22
  %24 = call i32 @ff_outlink_get_status(ptr noundef %23)
  store i32 %24, ptr %10, align 4, !tbaa !25
  %25 = load i32, ptr %10, align 4, !tbaa !25
  %26 = icmp ne i32 %25, 0
  br i1 %26, label %27, label %30

27:                                               ; preds = %22
  %28 = load ptr, ptr %4, align 8, !tbaa !22
  %29 = load i32, ptr %10, align 4, !tbaa !25
  call void @ff_inlink_set_status(ptr noundef %28, i32 noundef %29)
  store i32 0, ptr %2, align 4
  store i32 1, ptr %11, align 4
  br label %31

30:                                               ; preds = %22
  store i32 0, ptr %11, align 4
  br label %31

31:                                               ; preds = %30, %27
  call void @llvm.lifetime.end.p0(i64 4, ptr %10) #6
  %32 = load i32, ptr %11, align 4
  switch i32 %32, label %70 [
    i32 0, label %33
  ]

33:                                               ; preds = %31
  br label %34

34:                                               ; preds = %33
  br label %35

35:                                               ; preds = %34
  %36 = load ptr, ptr %4, align 8, !tbaa !22
  %37 = call i32 @ff_inlink_consume_frame(ptr noundef %36, ptr noundef %6)
  store i32 %37, ptr %9, align 4, !tbaa !25
  %38 = load i32, ptr %9, align 4, !tbaa !25
  %39 = icmp slt i32 %38, 0
  br i1 %39, label %40, label %42

40:                                               ; preds = %35
  %41 = load i32, ptr %9, align 4, !tbaa !25
  store i32 %41, ptr %2, align 4
  store i32 1, ptr %11, align 4
  br label %70

42:                                               ; preds = %35
  %43 = load i32, ptr %9, align 4, !tbaa !25
  %44 = icmp sgt i32 %43, 0
  br i1 %44, label %45, label %49

45:                                               ; preds = %42
  %46 = load ptr, ptr %4, align 8, !tbaa !22
  %47 = load ptr, ptr %6, align 8, !tbaa !26
  %48 = call i32 @filter_frame(ptr noundef %46, ptr noundef %47)
  store i32 %48, ptr %2, align 4
  store i32 1, ptr %11, align 4
  br label %70

49:                                               ; preds = %42
  %50 = load ptr, ptr %4, align 8, !tbaa !22
  %51 = call i32 @ff_inlink_acknowledge_status(ptr noundef %50, ptr noundef %7, ptr noundef %8)
  %52 = icmp ne i32 %51, 0
  br i1 %52, label %53, label %60

53:                                               ; preds = %49
  %54 = load ptr, ptr %5, align 8, !tbaa !22
  %55 = load i32, ptr %7, align 4, !tbaa !25
  %56 = load ptr, ptr %4, align 8, !tbaa !22
  %57 = load ptr, ptr %5, align 8, !tbaa !22
  %58 = load i64, ptr %8, align 8, !tbaa !28
  %59 = call i64 @rescale_pts(ptr noundef %56, ptr noundef %57, i64 noundef %58)
  call void @ff_outlink_set_status(ptr noundef %54, i32 noundef %55, i64 noundef %59)
  store i32 0, ptr %2, align 4
  store i32 1, ptr %11, align 4
  br label %70

60:                                               ; preds = %49
  br label %61

61:                                               ; preds = %60
  %62 = load ptr, ptr %5, align 8, !tbaa !22
  %63 = call i32 @ff_outlink_frame_wanted(ptr noundef %62)
  %64 = icmp ne i32 %63, 0
  br i1 %64, label %65, label %67

65:                                               ; preds = %61
  %66 = load ptr, ptr %4, align 8, !tbaa !22
  call void @ff_inlink_request_frame(ptr noundef %66)
  store i32 0, ptr %2, align 4
  store i32 1, ptr %11, align 4
  br label %70

67:                                               ; preds = %61
  br label %68

68:                                               ; preds = %67
  br label %69

69:                                               ; preds = %68
  store i32 -1497649742, ptr %2, align 4
  store i32 1, ptr %11, align 4
  br label %70

70:                                               ; preds = %69, %65, %53, %45, %40, %31
  call void @llvm.lifetime.end.p0(i64 4, ptr %9) #6
  call void @llvm.lifetime.end.p0(i64 8, ptr %8) #6
  call void @llvm.lifetime.end.p0(i64 4, ptr %7) #6
  call void @llvm.lifetime.end.p0(i64 8, ptr %6) #6
  call void @llvm.lifetime.end.p0(i64 8, ptr %5) #6
  call void @llvm.lifetime.end.p0(i64 8, ptr %4) #6
  %71 = load i32, ptr %2, align 4
  ret i32 %71
}