; Function Attrs: nounwind uwtable
define internal i32 @activate(ptr noundef readonly captures(none) %0) #0 {
  %2 = alloca ptr, align 8
  %3 = alloca i32, align 4
  %4 = alloca i64, align 8
  %5 = getelementptr inbounds nuw i8, ptr %0, i64 32
  %6 = load ptr, ptr %5, align 8, !tbaa !4
  %7 = load ptr, ptr %6, align 8, !tbaa !20
  %8 = getelementptr inbounds nuw i8, ptr %0, i64 56
  %9 = load ptr, ptr %8, align 8, !tbaa !22
  %10 = load ptr, ptr %9, align 8, !tbaa !20
  call void @llvm.lifetime.start.p0(i64 8, ptr nonnull %2) #4
  call void @llvm.lifetime.start.p0(i64 4, ptr nonnull %3) #4
  call void @llvm.lifetime.start.p0(i64 8, ptr nonnull %4) #4
  %11 = tail call i32 @ff_outlink_get_status(ptr noundef %10) #4
  %.not = icmp eq i32 %11, 0
  br i1 %.not, label %.critedge, label %12

12:                                               ; preds = %1
  tail call void @ff_inlink_set_status(ptr noundef %7, i32 noundef %11) #4
  br label %83

.critedge:                                        ; preds = %1
  %13 = call i32 @ff_inlink_consume_frame(ptr noundef %7, ptr noundef nonnull %2) #4
  %14 = icmp slt i32 %13, 0
  br i1 %14, label %83, label %15

15:                                               ; preds = %.critedge
  %.not22 = icmp eq i32 %13, 0
  br i1 %.not22, label %52, label %16

16:                                               ; preds = %15
  %17 = load ptr, ptr %2, align 8, !tbaa !23
  %18 = getelementptr inbounds nuw i8, ptr %7, i64 16
  %19 = load ptr, ptr %18, align 8, !tbaa !25
  %20 = getelementptr inbounds nuw i8, ptr %19, i64 56
  %21 = load ptr, ptr %20, align 8, !tbaa !22
  %22 = load ptr, ptr %21, align 8, !tbaa !20
  %23 = getelementptr inbounds nuw i8, ptr %17, i64 136
  %24 = load i64, ptr %23, align 8, !tbaa !34
  %25 = getelementptr inbounds nuw i8, ptr %7, i64 96
  %26 = getelementptr inbounds nuw i8, ptr %22, i64 96
  %27 = load i64, ptr %25, align 8
  %28 = load i64, ptr %26, align 8
  %.sroa.011.0.extract.trunc.i.i.i = trunc i64 %27 to i32
  %.sroa.0.0.extract.trunc.i.i.i = trunc i64 %28 to i32
  %sext.i.i.i = shl i64 %27, 32
  %29 = ashr exact i64 %sext.i.i.i, 32
  %30 = ashr i64 %28, 32
  %31 = mul nsw i64 %29, %30
  %sext20.i.i.i = shl i64 %28, 32
  %32 = ashr exact i64 %sext20.i.i.i, 32
  %33 = ashr i64 %27, 32
  %34 = mul nsw i64 %32, %33
  %.not.i.i.i = icmp eq i64 %31, %34
  %35 = lshr i64 %27, 32
  %36 = trunc nuw i64 %35 to i32
  %37 = lshr i64 %28, 32
  %38 = trunc nuw i64 %37 to i32
  br i1 %.not.i.i.i, label %39, label %av_cmp_q.exit.thread.i.i

39:                                               ; preds = %16
  %40 = icmp ugt i64 %28, 4294967295
  %41 = icmp ugt i64 %27, 4294967295
  %or.cond.i.i.i = and i1 %41, %40
  br i1 %or.cond.i.i.i, label %filter_frame.exit, label %42

42:                                               ; preds = %39
  %43 = icmp ne i32 %.sroa.011.0.extract.trunc.i.i.i, 0
  %44 = icmp ne i32 %.sroa.0.0.extract.trunc.i.i.i, 0
  %or.cond5.i.i.i = and i1 %43, %44
  %.not.unshifted.i.i = xor i32 %.sroa.0.0.extract.trunc.i.i.i, %.sroa.011.0.extract.trunc.i.i.i
  %.not.i.i = icmp sgt i32 %.not.unshifted.i.i, -1
  %or.cond.i.i = and i1 %or.cond5.i.i.i, %.not.i.i
  br i1 %or.cond.i.i, label %filter_frame.exit, label %av_cmp_q.exit.thread.i.i

av_cmp_q.exit.thread.i.i:                         ; preds = %42, %16
  %45 = call i64 @av_rescale_q(i64 noundef %24, i64 %27, i64 %28) #5
  call void (ptr, i32, ptr, ...) @av_log(ptr noundef nonnull %19, i32 noundef 48, ptr noundef nonnull @.str.16, i32 noundef %.sroa.011.0.extract.trunc.i.i.i, i32 noundef %36, i64 noundef %24, i32 noundef %.sroa.0.0.extract.trunc.i.i.i, i32 noundef %38, i64 noundef %45) #4
  br label %filter_frame.exit

filter_frame.exit:                                ; preds = %39, %42, %av_cmp_q.exit.thread.i.i
  %.0.i.i = phi i64 [ %45, %av_cmp_q.exit.thread.i.i ], [ %24, %39 ], [ %24, %42 ]
  store i64 %.0.i.i, ptr %23, align 8, !tbaa !34
  %46 = getelementptr inbounds nuw i8, ptr %17, i64 408
  %47 = load i64, ptr %46, align 8, !tbaa !40
  %48 = load i64, ptr %25, align 8
  %49 = load i64, ptr %26, align 8
  %50 = call i64 @av_rescale_q(i64 noundef %47, i64 %48, i64 %49) #5
  store i64 %50, ptr %46, align 8, !tbaa !40
  %51 = call i32 @ff_filter_frame(ptr noundef nonnull %22, ptr noundef nonnull %17) #4
  br label %83

52:                                               ; preds = %15
  %53 = call i32 @ff_inlink_acknowledge_status(ptr noundef %7, ptr noundef nonnull %3, ptr noundef nonnull %4) #4
  %.not23 = icmp eq i32 %53, 0
  br i1 %.not23, label %80, label %54

54:                                               ; preds = %52
  %55 = load i32, ptr %3, align 4, !tbaa !41
  %56 = load i64, ptr %4, align 8, !tbaa !42
  %57 = getelementptr inbounds nuw i8, ptr %7, i64 16
  %58 = load ptr, ptr %57, align 8, !tbaa !25
  %59 = getelementptr inbounds nuw i8, ptr %7, i64 96
  %60 = getelementptr inbounds nuw i8, ptr %10, i64 96
  %61 = load i64, ptr %59, align 8
  %62 = load i64, ptr %60, align 8
  %.sroa.011.0.extract.trunc.i.i = trunc i64 %61 to i32
  %.sroa.0.0.extract.trunc.i.i = trunc i64 %62 to i32
  %sext.i.i = shl i64 %61, 32
  %63 = ashr exact i64 %sext.i.i, 32
  %64 = ashr i64 %62, 32
  %65 = mul nsw i64 %63, %64
  %sext20.i.i = shl i64 %62, 32
  %66 = ashr exact i64 %sext20.i.i, 32
  %67 = ashr i64 %61, 32
  %68 = mul nsw i64 %66, %67
  %.not.i.i25 = icmp eq i64 %65, %68
  %69 = lshr i64 %61, 32
  %70 = trunc nuw i64 %69 to i32
  %71 = lshr i64 %62, 32
  %72 = trunc nuw i64 %71 to i32
  br i1 %.not.i.i25, label %73, label %av_cmp_q.exit.thread.i

73:                                               ; preds = %54
  %74 = icmp ugt i64 %62, 4294967295
  %75 = icmp ugt i64 %61, 4294967295
  %or.cond.i.i26 = and i1 %75, %74
  br i1 %or.cond.i.i26, label %rescale_pts.exit, label %76

76:                                               ; preds = %73
  %77 = icmp ne i32 %.sroa.011.0.extract.trunc.i.i, 0
  %78 = icmp ne i32 %.sroa.0.0.extract.trunc.i.i, 0
  %or.cond5.i.i = and i1 %77, %78
  %.not.unshifted.i = xor i32 %.sroa.0.0.extract.trunc.i.i, %.sroa.011.0.extract.trunc.i.i
  %.not.i = icmp sgt i32 %.not.unshifted.i, -1
  %or.cond.i = and i1 %or.cond5.i.i, %.not.i
  br i1 %or.cond.i, label %rescale_pts.exit, label %av_cmp_q.exit.thread.i

av_cmp_q.exit.thread.i:                           ; preds = %76, %54
  %79 = call i64 @av_rescale_q(i64 noundef %56, i64 %61, i64 %62) #5
  call void (ptr, i32, ptr, ...) @av_log(ptr noundef %58, i32 noundef 48, ptr noundef nonnull @.str.16, i32 noundef %.sroa.011.0.extract.trunc.i.i, i32 noundef %70, i64 noundef %56, i32 noundef %.sroa.0.0.extract.trunc.i.i, i32 noundef %72, i64 noundef %79) #4
  br label %rescale_pts.exit

rescale_pts.exit:                                 ; preds = %73, %76, %av_cmp_q.exit.thread.i
  %.0.i = phi i64 [ %79, %av_cmp_q.exit.thread.i ], [ %56, %73 ], [ %56, %76 ]
  call void @ff_avfilter_link_set_in_status(ptr noundef nonnull %10, i32 noundef %55, i64 noundef %.0.i) #4
  br label %83

80:                                               ; preds = %52
  %81 = call i32 @ff_outlink_frame_wanted(ptr noundef %10) #4
  %.not24 = icmp eq i32 %81, 0
  br i1 %.not24, label %83, label %82

82:                                               ; preds = %80
  call void @ff_inlink_request_frame(ptr noundef %7) #4
  br label %83

83:                                               ; preds = %12, %80, %.critedge, %82, %rescale_pts.exit, %filter_frame.exit
  %.1 = phi i32 [ %51, %filter_frame.exit ], [ 0, %rescale_pts.exit ], [ 0, %82 ], [ 0, %12 ], [ %13, %.critedge ], [ -1497649742, %80 ]
  call void @llvm.lifetime.end.p0(i64 8, ptr nonnull %4) #4
  call void @llvm.lifetime.end.p0(i64 4, ptr nonnull %3) #4
  call void @llvm.lifetime.end.p0(i64 8, ptr nonnull %2) #4
  ret i32 %.1
}